target datalayout = "e-m:e-p270:32:32-p271:32:32-p272:64:64-i64:64-i128:128-f80:128-n8:16:32:64-S128"
target triple = "x86_64-pc-linux-gnu"

@H5S_init_g = external global i8, align 1
@H5_libterm_g = external global i8, align 1
@.str = private unnamed_addr constant [101 x i8] c"generated/home/dtcxzyw/WorkSpace/Projects/compilers/llvm-opt-benchmark/bench/hdf5/hdf5/src/H5Snone.c\00", align 1
@H5E_DATASPACE_g = external global i64, align 8
@H5E_CANTSET_g = external global i64, align 8
@__func__.H5S__none_project_simple = private unnamed_addr constant [25 x i8] c"H5S__none_project_simple\00", align 1
@.str.13 = private unnamed_addr constant [29 x i8] c"unable to set none selection\00", align 1

; Function Attrs: nounwind uwtable
define internal i32 @H5S__none_project_simple(ptr noundef %0, ptr noundef %1, ptr noundef %2) #0 {
  %4 = alloca ptr, align 8
  %5 = alloca ptr, align 8
  %6 = alloca ptr, align 8
  %7 = alloca i32, align 4
  %8 = alloca i8, align 1
  store ptr %0, ptr %4, align 8, !tbaa !3
  store ptr %1, ptr %5, align 8, !tbaa !3
  store ptr %2, ptr %6, align 8, !tbaa !33
  call void @llvm.lifetime.start.p0(i64 4, ptr %7) #5
  store i32 0, ptr %7, align 4, !tbaa !32
  call void @llvm.lifetime.start.p0(i64 1, ptr %8) #5
  store i8 0, ptr %8, align 1, !tbaa !8
  %9 = load i8, ptr @H5S_init_g, align 1, !tbaa !8, !range !10, !noundef !11
  %10 = trunc i8 %9 to i1
  br i1 %10, label %15, label %11

11:                                               ; preds = %3
  %12 = load i8, ptr @H5_libterm_g, align 1, !tbaa !8, !range !10, !noundef !11
  %13 = trunc i8 %12 to i1
  %14 = xor i1 %13, true
  br label %15

15:                                               ; preds = %11, %3
  %16 = phi i1 [ true, %3 ], [ %14, %11 ]
  %17 = xor i1 %16, true
  %18 = xor i1 %17, true
  %19 = zext i1 %18 to i32
  %20 = sext i32 %19 to i64
  %21 = call i64 @llvm.expect.i64(i64 %20, i64 1)
  %22 = icmp ne i64 %21, 0
  br i1 %22, label %23, label %48

23:                                               ; preds = %15
  %24 = load ptr, ptr %5, align 8, !tbaa !3
  %25 = call i32 @H5S_select_none(ptr noundef %24)
  %26 = icmp slt i32 %25, 0
  br i1 %26, label %27, label %46

27:                                               ; preds = %23
  br label %28

28:                                               ; preds = %27
  br label %29

29:                                               ; preds = %28
  br label %30

30:                                               ; preds = %29
  %31 = load i64, ptr @H5E_DATASPACE_g, align 8, !tbaa !31
  %32 = load i64, ptr @H5E_CANTSET_g, align 8, !tbaa !31
  %33 = call i32 (ptr, ptr, i32, i64, i64, ptr, ...) @H5E_printf_stack(ptr noundef @.str, ptr noundef @__func__.H5S__none_project_simple, i32 noundef 988, i64 noundef %31, i64 noundef %32, ptr noundef @.str.13)
  br label %34

34:                                               ; preds = %30
  br label %35

35:                                               ; preds = %34
  store i8 1, ptr %8, align 1, !tbaa !8
  %36 = load i8, ptr %8, align 1, !tbaa !8, !range !10, !noundef !11
  %37 = trunc i8 %36 to i1
  %38 = zext i1 %37 to i8
  store i8 %38, ptr %8, align 1, !tbaa !8
  br label %39

39:                                               ; preds = %35
  br label %40

40:                                               ; preds = %39
  br label %41

41:                                               ; preds = %40
  store i32 -1, ptr %7, align 4, !tbaa !32
  br label %47

42:                                               ; No predecessors!
  br label %43

43:                                               ; preds = %42
  br label %44

44:                                               ; preds = %43
  br label %45

45:                                               ; preds = %44
  br label %46

46:                                               ; preds = %45, %23
  br label %47

47:                                               ; preds = %46, %41
  br label %48

48:                                               ; preds = %47, %15
  %49 = load i32, ptr %7, align 4, !tbaa !32
  call void @llvm.lifetime.end.p0(i64 1, ptr %8) #5
  call void @llvm.lifetime.end.p0(i64 4, ptr %7) #5
  ret i32 %49
}