; Function Attrs: nounwind uwtable
define internal range(i32 -1, 1) i32 @H5S__none_project_simple(ptr readnone captures(none) %0, ptr noundef %1, ptr readnone captures(none) %2) #3 {
  %4 = load i8, ptr @H5S_init_g, align 1, !tbaa !3, !range !7, !noundef !8
  %5 = trunc nuw i8 %4 to i1
  %6 = load i8, ptr @H5_libterm_g, align 1, !range !7
  %7 = trunc nuw i8 %6 to i1
  %8 = xor i1 %7, true
  %9 = select i1 %5, i1 true, i1 %8
  br i1 %9, label %10, label %17, !prof !9

10:                                               ; preds = %3
  %11 = tail call i32 @H5S_select_none(ptr noundef %1)
  %12 = icmp slt i32 %11, 0
  br i1 %12, label %13, label %17

13:                                               ; preds = %10
  %14 = load i64, ptr @H5E_DATASPACE_g, align 8, !tbaa !28
  %15 = load i64, ptr @H5E_CANTSET_g, align 8, !tbaa !28
  %16 = tail call i32 (ptr, ptr, i32, i64, i64, ptr, ...) @H5E_printf_stack(ptr noundef nonnull @.str, ptr noundef nonnull @__func__.H5S__none_project_simple, i32 noundef 988, i64 noundef %14, i64 noundef %15, ptr noundef nonnull @.str.13) #7
  br label %17

17:                                               ; preds = %13, %10, %3
  %.0 = phi i32 [ -1, %13 ], [ 0, %10 ], [ 0, %3 ]
  ret i32 %.0
}